target datalayout = "e-m:e-p270:32:32-p271:32:32-p272:64:64-i64:64-i128:128-f80:128-n8:16:32:64-S128"
target triple = "x86_64-pc-linux-gnu"

@ngap_handle = internal global ptr null, align 8
@.str.45 = private unnamed_addr constant [10 x i8] c"NRPPA_PDU\00", align 1
@nrppa_handle = internal global ptr null, align 8
@ngap_n2_ie_type_dissector_table = internal global ptr null, align 8
@ngap_disable_nrppa_encapsulation = internal global i8 0, align 1
@.str.4897 = private unnamed_addr constant [10 x i8] c"contentId\00", align 1
@.str.4906 = private unnamed_addr constant [9 x i8] c"ngapData\00", align 1
@.str.4907 = private unnamed_addr constant [11 x i8] c"ngapIeType\00", align 1
@.str.4908 = private unnamed_addr constant [16 x i8] c"ngapMessageType\00", align 1

; Function Attrs: null_pointer_is_valid sspstrong uwtable
define internal zeroext i1 @find_n2_info_content(ptr noundef %0, ptr noundef %1, ptr noundef %2, ptr noundef %3, ptr noundef %4) #0 {
  %6 = alloca i1, align 1
  %7 = alloca ptr, align 8
  %8 = alloca ptr, align 8
  %9 = alloca ptr, align 8
  %10 = alloca ptr, align 8
  %11 = alloca ptr, align 8
  %12 = alloca ptr, align 8
  %13 = alloca ptr, align 8
  %14 = alloca ptr, align 8
  %15 = alloca double, align 8
  %16 = alloca i32, align 4
  store ptr %0, ptr %7, align 8
  store ptr %1, ptr %8, align 8
  store ptr %2, ptr %9, align 8
  store ptr %3, ptr %10, align 8
  store ptr %4, ptr %11, align 8
  call void @llvm.lifetime.start.p0(i64 8, ptr %12) #11
  call void @llvm.lifetime.start.p0(i64 8, ptr %13) #11
  call void @llvm.lifetime.start.p0(i64 8, ptr %14) #11
  call void @llvm.lifetime.start.p0(i64 8, ptr %15) #11
  %17 = load ptr, ptr %7, align 8
  %18 = load ptr, ptr %8, align 8
  %19 = load ptr, ptr %9, align 8
  %20 = call ptr @json_get_object(ptr noundef %17, ptr noundef %18, ptr noundef %19)
  store ptr %20, ptr %12, align 8
  %21 = load ptr, ptr %12, align 8
  %22 = icmp ne ptr %21, null
  br i1 %22, label %24, label %23

23:                                               ; preds = %5
  store i1 false, ptr %6, align 1
  store i32 1, ptr %16, align 4
  br label %76

24:                                               ; preds = %5
  %25 = load ptr, ptr %7, align 8
  %26 = load ptr, ptr %12, align 8
  %27 = call ptr @json_get_object(ptr noundef %25, ptr noundef %26, ptr noundef @.str.4906)
  store ptr %27, ptr %13, align 8
  %28 = load ptr, ptr %13, align 8
  %29 = icmp ne ptr %28, null
  br i1 %29, label %31, label %30

30:                                               ; preds = %24
  store i1 false, ptr %6, align 1
  store i32 1, ptr %16, align 4
  br label %76

31:                                               ; preds = %24
  %32 = load ptr, ptr %7, align 8
  %33 = load ptr, ptr %13, align 8
  %34 = call ptr @json_get_string(ptr noundef %32, ptr noundef %33, ptr noundef @.str.4897)
  store ptr %34, ptr %14, align 8
  %35 = load ptr, ptr %14, align 8
  %36 = icmp ne ptr %35, null
  br i1 %36, label %37, label %42

37:                                               ; preds = %31
  %38 = load ptr, ptr %14, align 8
  %39 = load ptr, ptr %10, align 8
  %40 = call i32 @strcmp(ptr noundef %38, ptr noundef %39) #13
  %41 = icmp ne i32 %40, 0
  br i1 %41, label %42, label %43

42:                                               ; preds = %37, %31
  store i1 false, ptr %6, align 1
  store i32 1, ptr %16, align 4
  br label %76

43:                                               ; preds = %37
  %44 = load ptr, ptr %7, align 8
  %45 = load ptr, ptr %12, align 8
  %46 = call ptr @json_get_string(ptr noundef %44, ptr noundef %45, ptr noundef @.str.4907)
  store ptr %46, ptr %14, align 8
  %47 = load ptr, ptr %14, align 8
  %48 = icmp ne ptr %47, null
  br i1 %48, label %49, label %65

49:                                               ; preds = %43
  %50 = load ptr, ptr %14, align 8
  %51 = call i32 @strcmp(ptr noundef %50, ptr noundef @.str.45) #13
  %52 = icmp ne i32 %51, 0
  br i1 %52, label %59, label %53

53:                                               ; preds = %49
  %54 = load i8, ptr @ngap_disable_nrppa_encapsulation, align 1, !range !8, !noundef !9
  %55 = trunc i8 %54 to i1
  br i1 %55, label %56, label %59

56:                                               ; preds = %53
  %57 = load ptr, ptr @nrppa_handle, align 8
  %58 = load ptr, ptr %11, align 8
  store ptr %57, ptr %58, align 8
  br label %64

59:                                               ; preds = %53, %49
  %60 = load ptr, ptr @ngap_n2_ie_type_dissector_table, align 8
  %61 = load ptr, ptr %14, align 8
  %62 = call ptr @dissector_get_string_handle(ptr noundef %60, ptr noundef %61)
  %63 = load ptr, ptr %11, align 8
  store ptr %62, ptr %63, align 8
  br label %64

64:                                               ; preds = %59, %56
  br label %75

65:                                               ; preds = %43
  %66 = load ptr, ptr %7, align 8
  %67 = load ptr, ptr %12, align 8
  %68 = call zeroext i1 @json_get_double(ptr noundef %66, ptr noundef %67, ptr noundef @.str.4908, ptr noundef %15)
  br i1 %68, label %69, label %72

69:                                               ; preds = %65
  %70 = load ptr, ptr @ngap_handle, align 8
  %71 = load ptr, ptr %11, align 8
  store ptr %70, ptr %71, align 8
  br label %74

72:                                               ; preds = %65
  %73 = load ptr, ptr %11, align 8
  store ptr null, ptr %73, align 8
  br label %74

74:                                               ; preds = %72, %69
  br label %75

75:                                               ; preds = %74, %64
  store i1 true, ptr %6, align 1
  store i32 1, ptr %16, align 4
  br label %76

76:                                               ; preds = %75, %42, %30, %23
  call void @llvm.lifetime.end.p0(i64 8, ptr %15) #11
  call void @llvm.lifetime.end.p0(i64 8, ptr %14) #11
  call void @llvm.lifetime.end.p0(i64 8, ptr %13) #11
  call void @llvm.lifetime.end.p0(i64 8, ptr %12) #11
  %77 = load i1, ptr %6, align 1
  ret i1 %77
}