; Function Attrs: null_pointer_is_valid sspstrong uwtable
define internal fastcc noundef zeroext i1 @find_n2_info_content(ptr noundef %0, ptr noundef %1, ptr noundef %2, ptr noundef readonly captures(none) %3, ptr noundef writeonly captures(none) %4) unnamed_addr #0 {
  %6 = alloca double, align 8
  call void @llvm.lifetime.start.p0(i64 8, ptr nonnull %6) #12
  %7 = tail call ptr @json_get_object(ptr noundef %0, ptr noundef %1, ptr noundef %2)
  %.not = icmp eq ptr %7, null
  br i1 %.not, label %29, label %8

8:                                                ; preds = %5
  %9 = tail call ptr @json_get_object(ptr noundef %0, ptr noundef nonnull %7, ptr noundef nonnull @.str.4906)
  %.not28 = icmp eq ptr %9, null
  br i1 %.not28, label %29, label %10

10:                                               ; preds = %8
  %11 = tail call ptr @json_get_string(ptr noundef %0, ptr noundef nonnull %9, ptr noundef nonnull @.str.4897)
  %.not29 = icmp eq ptr %11, null
  br i1 %.not29, label %29, label %12

12:                                               ; preds = %10
  %13 = tail call i32 @strcmp(ptr noundef nonnull dereferenceable(1) %11, ptr noundef %3) #15
  %.not30 = icmp eq i32 %13, 0
  br i1 %.not30, label %14, label %29

14:                                               ; preds = %12
  %15 = tail call ptr @json_get_string(ptr noundef %0, ptr noundef nonnull %7, ptr noundef nonnull @.str.4907)
  %.not31 = icmp eq ptr %15, null
  br i1 %.not31, label %26, label %16

16:                                               ; preds = %14
  %17 = tail call i32 @strcmp(ptr noundef nonnull dereferenceable(1) %15, ptr noundef nonnull dereferenceable(10) @.str.45) #15
  %.not32 = icmp eq i32 %17, 0
  br i1 %.not32, label %18, label %23

18:                                               ; preds = %16
  %19 = load i8, ptr @ngap_disable_nrppa_encapsulation, align 1, !range !6, !noundef !7
  %20 = trunc nuw i8 %19 to i1
  br i1 %20, label %21, label %23

21:                                               ; preds = %18
  %22 = load ptr, ptr @nrppa_handle, align 8
  br label %.sink.split

23:                                               ; preds = %18, %16
  %24 = load ptr, ptr @ngap_n2_ie_type_dissector_table, align 8
  %25 = tail call ptr @dissector_get_string_handle(ptr noundef %24, ptr noundef nonnull %15)
  br label %.sink.split

26:                                               ; preds = %14
  %27 = call zeroext i1 @json_get_double(ptr noundef %0, ptr noundef nonnull %7, ptr noundef nonnull @.str.4908, ptr noundef nonnull %6)
  %28 = load ptr, ptr @ngap_handle, align 8
  %spec.select = select i1 %27, ptr %28, ptr null
  br label %.sink.split

.sink.split:                                      ; preds = %26, %21, %23
  %.sink = phi ptr [ %25, %23 ], [ %22, %21 ], [ %spec.select, %26 ]
  store ptr %.sink, ptr %4, align 8
  br label %29

29:                                               ; preds = %.sink.split, %10, %12, %8, %5
  %.0 = phi i1 [ false, %5 ], [ false, %8 ], [ false, %12 ], [ false, %10 ], [ true, %.sink.split ]
  call void @llvm.lifetime.end.p0(i64 8, ptr nonnull %6) #12
  ret i1 %.0
}